; ModuleID = 'source-C-CXX/51/2268.c'
source_filename = "source-C-CXX/51/2268.c"
target datalayout = "e-m:e-p270:32:32-p271:32:32-p272:64:64-i64:64-f80:128-n8:16:32:64-S128"
target triple = "x86_64-pc-linux-gnu"

@.str = private unnamed_addr constant [5 x i8] c"%d%d\00", align 1
@.str.1 = private unnamed_addr constant [3 x i8] c"%d\00", align 1
@.str.2 = private unnamed_addr constant [4 x i8] c"%d \00", align 1

; Function Attrs: nofree nounwind sspstrong uwtable
define dso_local i32 @main() local_unnamed_addr #0 {
  %1 = alloca i32, align 4
  %2 = alloca i32, align 4
  %3 = bitcast i32* %1 to i8*
  call void @llvm.lifetime.start.p0i8(i64 4, i8* nonnull %3) #4
  %4 = bitcast i32* %2 to i8*
  call void @llvm.lifetime.start.p0i8(i64 4, i8* nonnull %4) #4
  %5 = call i32 (i8*, ...) @__isoc99_scanf(i8* getelementptr inbounds ([5 x i8], [5 x i8]* @.str, i64 0, i64 0), i32* nonnull %2, i32* nonnull %1)
  %6 = load i32, i32* %2, align 4, !tbaa !5
  %7 = sext i32 %6 to i64
  %8 = shl nsw i64 %7, 2
  %9 = call noalias align 16 i8* @malloc(i64 %8) #4
  %10 = bitcast i8* %9 to i32*
  %11 = load i32, i32* %1, align 4, !tbaa !5
  %12 = icmp slt i32 %11, %6
  br i1 %12, label %13, label %17

13:                                               ; preds = %0
  %14 = sext i32 %11 to i64
  br label %21

15:                                               ; preds = %21
  %16 = load i32, i32* %1, align 4, !tbaa !5
  br label %17

17:                                               ; preds = %15, %0
  %18 = phi i32 [ %26, %15 ], [ %6, %0 ]
  %19 = phi i32 [ %16, %15 ], [ %11, %0 ]
  %20 = icmp sgt i32 %19, 0
  br i1 %20, label %34, label %31

21:                                               ; preds = %13, %21
  %22 = phi i64 [ %14, %13 ], [ %25, %21 ]
  %23 = getelementptr inbounds i32, i32* %10, i64 %22
  %24 = call i32 (i8*, ...) @__isoc99_scanf(i8* getelementptr inbounds ([3 x i8], [3 x i8]* @.str.1, i64 0, i64 0), i32* %23)
  %25 = add nsw i64 %22, 1
  %26 = load i32, i32* %2, align 4, !tbaa !5
  %27 = sext i32 %26 to i64
  %28 = icmp slt i64 %25, %27
  br i1 %28, label %21, label %15, !llvm.loop !9

29:                                               ; preds = %34
  %30 = load i32, i32* %2, align 4, !tbaa !5
  br label %31

31:                                               ; preds = %29, %17
  %32 = phi i32 [ %30, %29 ], [ %18, %17 ]
  %33 = icmp sgt i32 %32, 0
  br i1 %33, label %42, label %56

34:                                               ; preds = %17, %34
  %35 = phi i64 [ %38, %34 ], [ 0, %17 ]
  %36 = getelementptr inbounds i32, i32* %10, i64 %35
  %37 = call i32 (i8*, ...) @__isoc99_scanf(i8* getelementptr inbounds ([3 x i8], [3 x i8]* @.str.1, i64 0, i64 0), i32* %36)
  %38 = add nuw nsw i64 %35, 1
  %39 = load i32, i32* %1, align 4, !tbaa !5
  %40 = sext i32 %39 to i64
  %41 = icmp slt i64 %38, %40
  br i1 %41, label %34, label %29, !llvm.loop !11

42:                                               ; preds = %31, %42
  %43 = phi i64 [ %52, %42 ], [ 0, %31 ]
  %44 = phi i32 [ %53, %42 ], [ %32, %31 ]
  %45 = add nsw i32 %44, -1
  %46 = sext i32 %45 to i64
  %47 = icmp slt i64 %43, %46
  %48 = getelementptr inbounds i32, i32* %10, i64 %43
  %49 = load i32, i32* %48, align 4, !tbaa !5
  %50 = select i1 %47, i8* getelementptr inbounds ([4 x i8], [4 x i8]* @.str.2, i64 0, i64 0), i8* getelementptr inbounds ([3 x i8], [3 x i8]* @.str.1, i64 0, i64 0)
  %51 = call i32 (i8*, ...) @printf(i8* nonnull dereferenceable(1) %50, i32 %49)
  %52 = add nuw nsw i64 %43, 1
  %53 = load i32, i32* %2, align 4, !tbaa !5
  %54 = sext i32 %53 to i64
  %55 = icmp slt i64 %52, %54
  br i1 %55, label %42, label %56, !llvm.loop !12

56:                                               ; preds = %42, %31
  call void @llvm.lifetime.end.p0i8(i64 4, i8* nonnull %4) #4
  call void @llvm.lifetime.end.p0i8(i64 4, i8* nonnull %3) #4
  ret i32 0
}

; Function Attrs: argmemonly mustprogress nofree nosync nounwind willreturn
declare void @llvm.lifetime.start.p0i8(i64 immarg, i8* nocapture) #1

; Function Attrs: nofree nounwind
declare noundef i32 @__isoc99_scanf(i8* nocapture noundef readonly, ...) local_unnamed_addr #2

; Function Attrs: inaccessiblememonly mustprogress nofree nounwind willreturn
declare noalias noundef align 16 i8* @malloc(i64 noundef) local_unnamed_addr #3

; Function Attrs: nofree nounwind
declare noundef i32 @printf(i8* nocapture noundef readonly, ...) local_unnamed_addr #2

; Function Attrs: argmemonly mustprogress nofree nosync nounwind willreturn
declare void @llvm.lifetime.end.p0i8(i64 immarg, i8* nocapture) #1


!llvm.module.flags = !{!0, !1, !2, !3}
!llvm.ident = !{!4}

!0 = !{i32 1, !"wchar_size", i32 4}
!1 = !{i32 7, !"PIC Level", i32 2}
!2 = !{i32 7, !"PIE Level", i32 2}
!3 = !{i32 7, !"uwtable", i32 1}
!4 = !{!"clang version 13.0.0"}
!5 = !{!6, !6, i64 0}
!6 = !{!"int", !7, i64 0}
!7 = !{!"omnipotent char", !8, i64 0}
!8 = !{!"Simple C/C++ TBAA"}
!9 = distinct !{!9, !10}
!10 = !{!"llvm.loop.mustprogress"}
!11 = distinct !{!11, !10}
!12 = distinct !{!12, !10}
